; ModuleID = '25/572.c'
source_filename = "25/572.c"
target datalayout = "e-m:e-p270:32:32-p271:32:32-p272:64:64-i64:64-f80:128-n8:16:32:64-S128"
target triple = "x86_64-pc-linux-gnu"

@.str = private unnamed_addr constant [3 x i8] c"%d\00", align 1
@.str.1 = private unnamed_addr constant [3 x i8] c"%c\00", align 1

; Function Attrs: noinline nounwind uwtable
define dso_local void @func(i8* %0) #0 {
  %2 = alloca i8*, align 8
  %3 = alloca i32, align 4
  %4 = alloca i32, align 4
  %5 = alloca i32, align 4
  store i8* %0, i8** %2, align 8
  %6 = load i8*, i8** %2, align 8
  %7 = call i64 @strlen(i8* %6) #3
  %8 = trunc i64 %7 to i32
  store i32 %8, i32* %3, align 4
  store i32 0, i32* %5, align 4
  store i32 0, i32* %4, align 4
  br label %9

9:                                                ; preds = %76, %1
  %10 = load i32, i32* %4, align 4
  %11 = load i32, i32* %3, align 4
  %12 = icmp slt i32 %10, %11
  br i1 %12, label %13, label %79

13:                                               ; preds = %9
  %14 = load i32, i32* %5, align 4
  %15 = icmp eq i32 %14, 0
  br i1 %15, label %16, label %36

16:                                               ; preds = %13
  %17 = load i8*, i8** %2, align 8
  %18 = load i32, i32* %4, align 4
  %19 = sext i32 %18 to i64
  %20 = getelementptr inbounds i8, i8* %17, i64 %19
  %21 = load i8, i8* %20, align 1
  %22 = sext i8 %21 to i32
  %23 = load i8*, i8** %2, align 8
  %24 = load i32, i32* %4, align 4
  %25 = sext i32 %24 to i64
  %26 = getelementptr inbounds i8, i8* %23, i64 %25
  %27 = load i8, i8* %26, align 1
  %28 = sext i8 %27 to i32
  %29 = add nsw i32 %22, %28
  %30 = sub nsw i32 %29, 48
  %31 = trunc i32 %30 to i8
  %32 = load i8*, i8** %2, align 8
  %33 = load i32, i32* %4, align 4
  %34 = sext i32 %33 to i64
  %35 = getelementptr inbounds i8, i8* %32, i64 %34
  store i8 %31, i8* %35, align 1
  br label %57

36:                                               ; preds = %13
  %37 = load i8*, i8** %2, align 8
  %38 = load i32, i32* %4, align 4
  %39 = sext i32 %38 to i64
  %40 = getelementptr inbounds i8, i8* %37, i64 %39
  %41 = load i8, i8* %40, align 1
  %42 = sext i8 %41 to i32
  %43 = load i8*, i8** %2, align 8
  %44 = load i32, i32* %4, align 4
  %45 = sext i32 %44 to i64
  %46 = getelementptr inbounds i8, i8* %43, i64 %45
  %47 = load i8, i8* %46, align 1
  %48 = sext i8 %47 to i32
  %49 = add nsw i32 %42, %48
  %50 = add nsw i32 %49, 1
  %51 = sub nsw i32 %50, 48
  %52 = trunc i32 %51 to i8
  %53 = load i8*, i8** %2, align 8
  %54 = load i32, i32* %4, align 4
  %55 = sext i32 %54 to i64
  %56 = getelementptr inbounds i8, i8* %53, i64 %55
  store i8 %52, i8* %56, align 1
  br label %57

57:                                               ; preds = %36, %16
  %58 = load i8*, i8** %2, align 8
  %59 = load i32, i32* %4, align 4
  %60 = sext i32 %59 to i64
  %61 = getelementptr inbounds i8, i8* %58, i64 %60
  %62 = load i8, i8* %61, align 1
  %63 = sext i8 %62 to i32
  %64 = icmp sgt i32 %63, 57
  br i1 %64, label %65, label %74

65:                                               ; preds = %57
  %66 = load i8*, i8** %2, align 8
  %67 = load i32, i32* %4, align 4
  %68 = sext i32 %67 to i64
  %69 = getelementptr inbounds i8, i8* %66, i64 %68
  %70 = load i8, i8* %69, align 1
  %71 = sext i8 %70 to i32
  %72 = sub nsw i32 %71, 10
  %73 = trunc i32 %72 to i8
  store i8 %73, i8* %69, align 1
  store i32 1, i32* %5, align 4
  br label %75

74:                                               ; preds = %57
  store i32 0, i32* %5, align 4
  br label %75

75:                                               ; preds = %74, %65
  br label %76

76:                                               ; preds = %75
  %77 = load i32, i32* %4, align 4
  %78 = add nsw i32 %77, 1
  store i32 %78, i32* %4, align 4
  br label %9

79:                                               ; preds = %9
  %80 = load i32, i32* %5, align 4
  %81 = icmp eq i32 %80, 1
  br i1 %81, label %82, label %92

82:                                               ; preds = %79
  %83 = load i8*, i8** %2, align 8
  %84 = load i32, i32* %4, align 4
  %85 = sext i32 %84 to i64
  %86 = getelementptr inbounds i8, i8* %83, i64 %85
  store i8 49, i8* %86, align 1
  %87 = load i8*, i8** %2, align 8
  %88 = load i32, i32* %4, align 4
  %89 = add nsw i32 %88, 1
  %90 = sext i32 %89 to i64
  %91 = getelementptr inbounds i8, i8* %87, i64 %90
  store i8 0, i8* %91, align 1
  br label %92

92:                                               ; preds = %82, %79
  ret void
}

; Function Attrs: nounwind readonly
declare dso_local i64 @strlen(i8*) #1

; Function Attrs: noinline nounwind uwtable
define dso_local i32 @main() #0 {
  %1 = alloca i32, align 4
  %2 = alloca [100 x i8], align 16
  %3 = alloca i32, align 4
  %4 = alloca i32, align 4
  %5 = alloca i32, align 4
  store i32 0, i32* %1, align 4
  %6 = getelementptr inbounds [100 x i8], [100 x i8]* %2, i64 0, i64 0
  store i8 49, i8* %6, align 16
  %7 = getelementptr inbounds [100 x i8], [100 x i8]* %2, i64 0, i64 1
  store i8 0, i8* %7, align 1
  %8 = call i32 (i8*, ...) @__isoc99_scanf(i8* getelementptr inbounds ([3 x i8], [3 x i8]* @.str, i64 0, i64 0), i32* %3)
  store i32 0, i32* %4, align 4
  br label %9

9:                                                ; preds = %15, %0
  %10 = load i32, i32* %4, align 4
  %11 = load i32, i32* %3, align 4
  %12 = icmp slt i32 %10, %11
  br i1 %12, label %13, label %18

13:                                               ; preds = %9
  %14 = getelementptr inbounds [100 x i8], [100 x i8]* %2, i64 0, i64 0
  call void @func(i8* %14)
  br label %15

15:                                               ; preds = %13
  %16 = load i32, i32* %4, align 4
  %17 = add nsw i32 %16, 1
  store i32 %17, i32* %4, align 4
  br label %9

18:                                               ; preds = %9
  %19 = getelementptr inbounds [100 x i8], [100 x i8]* %2, i64 0, i64 0
  %20 = call i64 @strlen(i8* %19) #3
  %21 = trunc i64 %20 to i32
  store i32 %21, i32* %5, align 4
  %22 = load i32, i32* %5, align 4
  %23 = sub nsw i32 %22, 1
  store i32 %23, i32* %4, align 4
  br label %24

24:                                               ; preds = %34, %18
  %25 = load i32, i32* %4, align 4
  %26 = icmp sge i32 %25, 0
  br i1 %26, label %27, label %37

27:                                               ; preds = %24
  %28 = load i32, i32* %4, align 4
  %29 = sext i32 %28 to i64
  %30 = getelementptr inbounds [100 x i8], [100 x i8]* %2, i64 0, i64 %29
  %31 = load i8, i8* %30, align 1
  %32 = sext i8 %31 to i32
  %33 = call i32 (i8*, ...) @printf(i8* getelementptr inbounds ([3 x i8], [3 x i8]* @.str.1, i64 0, i64 0), i32 %32)
  br label %34

34:                                               ; preds = %27
  %35 = load i32, i32* %4, align 4
  %36 = add nsw i32 %35, -1
  store i32 %36, i32* %4, align 4
  br label %24

37:                                               ; preds = %24
  %38 = load i32, i32* %1, align 4
  ret i32 %38
}

declare dso_local i32 @__isoc99_scanf(i8*, ...) #2

declare dso_local i32 @printf(i8*, ...) #2


!llvm.module.flags = !{!0}
!llvm.ident = !{!1}

!0 = !{i32 1, !"wchar_size", i32 4}
!1 = !{!"clang version 10.0.0-4ubuntu1 "}
